target datalayout = "e-m:e-p270:32:32-p271:32:32-p272:64:64-i64:64-i128:128-f80:128-n8:16:32:64-S128"
target triple = "x86_64-pc-linux-gnu"

%struct.TupleDescData = type { i32, i32, i32, i32, ptr, [0 x %struct.CompactAttribute] }
%struct.CompactAttribute = type { i32, i16, i8, i8, i8, i8, i8, i8, i8 }
%struct.FormData_pg_attribute = type { i32, %struct.nameData, i32, i16, i16, i32, i16, i8, i8, i8, i8, i8, i8, i8, i8, i8, i8, i8, i16, i32 }
%struct.nameData = type { [64 x i8] }
%struct.ForFourState = type { ptr, ptr, ptr, ptr, i32 }
%struct.List = type { i32, i32, i32, ptr, [0 x %union.ListCell] }
%union.ListCell = type { ptr }
%struct.String = type { i32, ptr }

; Function Attrs: inlinehint nounwind uwtable
define internal ptr @TupleDescAttr(ptr noundef %0, i32 noundef %1) #2 {
  %3 = alloca ptr, align 8
  %4 = alloca i32, align 4
  %5 = alloca ptr, align 8
  store ptr %0, ptr %3, align 8
  store i32 %1, ptr %4, align 4
  call void @llvm.lifetime.start.p0(i64 8, ptr %5) #8
  %6 = load ptr, ptr %3, align 8
  %7 = load ptr, ptr %3, align 8
  %8 = getelementptr inbounds nuw %struct.TupleDescData, ptr %7, i32 0, i32 0
  %9 = load i32, ptr %8, align 8
  %10 = sext i32 %9 to i64
  %11 = mul i64 %10, 16
  %12 = add i64 24, %11
  %13 = getelementptr inbounds nuw i8, ptr %6, i64 %12
  store ptr %13, ptr %5, align 8
  %14 = load ptr, ptr %5, align 8
  %15 = load i32, ptr %4, align 4
  %16 = sext i32 %15 to i64
  %17 = getelementptr inbounds %struct.FormData_pg_attribute, ptr %14, i64 %16
  call void @llvm.lifetime.end.p0(i64 8, ptr %5) #8
  ret ptr %17
}

; Function Attrs: nounwind uwtable
define dso_local void @TupleDescInitEntryCollation(ptr noundef %0, i16 noundef signext %1, i32 noundef %2) #0 {
  %4 = alloca ptr, align 8
  %5 = alloca i16, align 2
  %6 = alloca i32, align 4
  store ptr %0, ptr %4, align 8
  store i16 %1, ptr %5, align 2
  store i32 %2, ptr %6, align 4
  %7 = load i32, ptr %6, align 4
  %8 = load ptr, ptr %4, align 8
  %9 = load i16, ptr %5, align 2
  %10 = sext i16 %9 to i32
  %11 = sub i32 %10, 1
  %12 = call ptr @TupleDescAttr(ptr noundef %8, i32 noundef %11)
  %13 = getelementptr inbounds nuw %struct.FormData_pg_attribute, ptr %12, i32 0, i32 19
  store i32 %7, ptr %13, align 4
  ret void
}

; Function Attrs: nounwind uwtable
define dso_local ptr @CreateTemplateTupleDesc(i32 noundef %0) #0 {
  %2 = alloca i32, align 4
  %3 = alloca ptr, align 8
  store i32 %0, ptr %2, align 4
  call void @llvm.lifetime.start.p0(i64 8, ptr %3) #8
  %4 = load i32, ptr %2, align 4
  %5 = sext i32 %4 to i64
  %6 = mul i64 %5, 16
  %7 = add i64 24, %6
  %8 = load i32, ptr %2, align 4
  %9 = sext i32 %8 to i64
  %10 = mul i64 %9, 100
  %11 = add i64 %7, %10
  %12 = call ptr @palloc(i64 noundef %11)
  store ptr %12, ptr %3, align 8
  %13 = load i32, ptr %2, align 4
  %14 = load ptr, ptr %3, align 8
  %15 = getelementptr inbounds nuw %struct.TupleDescData, ptr %14, i32 0, i32 0
  store i32 %13, ptr %15, align 8
  %16 = load ptr, ptr %3, align 8
  %17 = getelementptr inbounds nuw %struct.TupleDescData, ptr %16, i32 0, i32 4
  store ptr null, ptr %17, align 8
  %18 = load ptr, ptr %3, align 8
  %19 = getelementptr inbounds nuw %struct.TupleDescData, ptr %18, i32 0, i32 1
  store i32 2249, ptr %19, align 4
  %20 = load ptr, ptr %3, align 8
  %21 = getelementptr inbounds nuw %struct.TupleDescData, ptr %20, i32 0, i32 2
  store i32 -1, ptr %21, align 8
  %22 = load ptr, ptr %3, align 8
  %23 = getelementptr inbounds nuw %struct.TupleDescData, ptr %22, i32 0, i32 3
  store i32 -1, ptr %23, align 4
  %24 = load ptr, ptr %3, align 8
  call void @llvm.lifetime.end.p0(i64 8, ptr %3) #8
  ret ptr %24
}

; Function Attrs: inlinehint nounwind uwtable
define internal i32 @list_length(ptr noundef %0) #2 {
  %2 = alloca ptr, align 8
  store ptr %0, ptr %2, align 8
  %3 = load ptr, ptr %2, align 8
  %4 = icmp ne ptr %3, null
  br i1 %4, label %5, label %9

5:                                                ; preds = %1
  %6 = load ptr, ptr %2, align 8
  %7 = getelementptr inbounds nuw %struct.List, ptr %6, i32 0, i32 1
  %8 = load i32, ptr %7, align 4
  br label %10

9:                                                ; preds = %1
  br label %10

10:                                               ; preds = %9, %5
  %11 = phi i32 [ %8, %5 ], [ 0, %9 ]
  ret i32 %11
}

; Function Attrs: nounwind uwtable
define dso_local ptr @BuildDescFromLists(ptr noundef %0, ptr noundef %1, ptr noundef %2, ptr noundef %3) #0 {
  %5 = alloca ptr, align 8
  %6 = alloca ptr, align 8
  %7 = alloca ptr, align 8
  %8 = alloca ptr, align 8
  %9 = alloca i32, align 4
  %10 = alloca i16, align 2
  %11 = alloca ptr, align 8
  %12 = alloca ptr, align 8
  %13 = alloca ptr, align 8
  %14 = alloca ptr, align 8
  %15 = alloca ptr, align 8
  %16 = alloca %struct.ForFourState, align 8
  %17 = alloca ptr, align 8
  %18 = alloca i32, align 4
  %19 = alloca i32, align 4
  %20 = alloca i32, align 4
  store ptr %0, ptr %5, align 8
  store ptr %1, ptr %6, align 8
  store ptr %2, ptr %7, align 8
  store ptr %3, ptr %8, align 8
  call void @llvm.lifetime.start.p0(i64 4, ptr %9) #8
  call void @llvm.lifetime.start.p0(i64 2, ptr %10) #8
  call void @llvm.lifetime.start.p0(i64 8, ptr %11) #8
  call void @llvm.lifetime.start.p0(i64 8, ptr %12) #8
  call void @llvm.lifetime.start.p0(i64 8, ptr %13) #8
  call void @llvm.lifetime.start.p0(i64 8, ptr %14) #8
  call void @llvm.lifetime.start.p0(i64 8, ptr %15) #8
  %21 = load ptr, ptr %5, align 8
  %22 = call i32 @list_length(ptr noundef %21)
  store i32 %22, ptr %9, align 4
  %23 = load i32, ptr %9, align 4
  %24 = call ptr @CreateTemplateTupleDesc(i32 noundef %23)
  store ptr %24, ptr %15, align 8
  store i16 0, ptr %10, align 2
  call void @llvm.lifetime.start.p0(i64 40, ptr %16) #8
  %25 = getelementptr inbounds nuw %struct.ForFourState, ptr %16, i32 0, i32 0
  %26 = load ptr, ptr %5, align 8
  store ptr %26, ptr %25, align 8
  %27 = getelementptr inbounds nuw %struct.ForFourState, ptr %16, i32 0, i32 1
  %28 = load ptr, ptr %6, align 8
  store ptr %28, ptr %27, align 8
  %29 = getelementptr inbounds nuw %struct.ForFourState, ptr %16, i32 0, i32 2
  %30 = load ptr, ptr %7, align 8
  store ptr %30, ptr %29, align 8
  %31 = getelementptr inbounds nuw %struct.ForFourState, ptr %16, i32 0, i32 3
  %32 = load ptr, ptr %8, align 8
  store ptr %32, ptr %31, align 8
  %33 = getelementptr inbounds nuw %struct.ForFourState, ptr %16, i32 0, i32 4
  store i32 0, ptr %33, align 8
  %34 = getelementptr i8, ptr %16, i64 36
  call void @llvm.memset.p0.i64(ptr align 4 %34, i8 0, i64 4, i1 false)
  br label %35

35:                                               ; preds = %163, %4
  %36 = getelementptr inbounds nuw %struct.ForFourState, ptr %16, i32 0, i32 0
  %37 = load ptr, ptr %36, align 8
  %38 = icmp ne ptr %37, null
  br i1 %38, label %39, label %56

39:                                               ; preds = %35
  %40 = getelementptr inbounds nuw %struct.ForFourState, ptr %16, i32 0, i32 4
  %41 = load i32, ptr %40, align 8
  %42 = getelementptr inbounds nuw %struct.ForFourState, ptr %16, i32 0, i32 0
  %43 = load ptr, ptr %42, align 8
  %44 = getelementptr inbounds nuw %struct.List, ptr %43, i32 0, i32 1
  %45 = load i32, ptr %44, align 4
  %46 = icmp slt i32 %41, %45
  br i1 %46, label %47, label %56

47:                                               ; preds = %39
  %48 = getelementptr inbounds nuw %struct.ForFourState, ptr %16, i32 0, i32 0
  %49 = load ptr, ptr %48, align 8
  %50 = getelementptr inbounds nuw %struct.List, ptr %49, i32 0, i32 3
  %51 = load ptr, ptr %50, align 8
  %52 = getelementptr inbounds nuw %struct.ForFourState, ptr %16, i32 0, i32 4
  %53 = load i32, ptr %52, align 8
  %54 = sext i32 %53 to i64
  %55 = getelementptr inbounds %union.ListCell, ptr %51, i64 %54
  br label %57

56:                                               ; preds = %39, %35
  br label %57

57:                                               ; preds = %56, %47
  %58 = phi ptr [ %55, %47 ], [ null, %56 ]
  store ptr %58, ptr %11, align 8
  %59 = getelementptr inbounds nuw %struct.ForFourState, ptr %16, i32 0, i32 1
  %60 = load ptr, ptr %59, align 8
  %61 = icmp ne ptr %60, null
  br i1 %61, label %62, label %79

62:                                               ; preds = %57
  %63 = getelementptr inbounds nuw %struct.ForFourState, ptr %16, i32 0, i32 4
  %64 = load i32, ptr %63, align 8
  %65 = getelementptr inbounds nuw %struct.ForFourState, ptr %16, i32 0, i32 1
  %66 = load ptr, ptr %65, align 8
  %67 = getelementptr inbounds nuw %struct.List, ptr %66, i32 0, i32 1
  %68 = load i32, ptr %67, align 4
  %69 = icmp slt i32 %64, %68
  br i1 %69, label %70, label %79

70:                                               ; preds = %62
  %71 = getelementptr inbounds nuw %struct.ForFourState, ptr %16, i32 0, i32 1
  %72 = load ptr, ptr %71, align 8
  %73 = getelementptr inbounds nuw %struct.List, ptr %72, i32 0, i32 3
  %74 = load ptr, ptr %73, align 8
  %75 = getelementptr inbounds nuw %struct.ForFourState, ptr %16, i32 0, i32 4
  %76 = load i32, ptr %75, align 8
  %77 = sext i32 %76 to i64
  %78 = getelementptr inbounds %union.ListCell, ptr %74, i64 %77
  br label %80

79:                                               ; preds = %62, %57
  br label %80

80:                                               ; preds = %79, %70
  %81 = phi ptr [ %78, %70 ], [ null, %79 ]
  store ptr %81, ptr %12, align 8
  %82 = getelementptr inbounds nuw %struct.ForFourState, ptr %16, i32 0, i32 2
  %83 = load ptr, ptr %82, align 8
  %84 = icmp ne ptr %83, null
  br i1 %84, label %85, label %102

85:                                               ; preds = %80
  %86 = getelementptr inbounds nuw %struct.ForFourState, ptr %16, i32 0, i32 4
  %87 = load i32, ptr %86, align 8
  %88 = getelementptr inbounds nuw %struct.ForFourState, ptr %16, i32 0, i32 2
  %89 = load ptr, ptr %88, align 8
  %90 = getelementptr inbounds nuw %struct.List, ptr %89, i32 0, i32 1
  %91 = load i32, ptr %90, align 4
  %92 = icmp slt i32 %87, %91
  br i1 %92, label %93, label %102

93:                                               ; preds = %85
  %94 = getelementptr inbounds nuw %struct.ForFourState, ptr %16, i32 0, i32 2
  %95 = load ptr, ptr %94, align 8
  %96 = getelementptr inbounds nuw %struct.List, ptr %95, i32 0, i32 3
  %97 = load ptr, ptr %96, align 8
  %98 = getelementptr inbounds nuw %struct.ForFourState, ptr %16, i32 0, i32 4
  %99 = load i32, ptr %98, align 8
  %100 = sext i32 %99 to i64
  %101 = getelementptr inbounds %union.ListCell, ptr %97, i64 %100
  br label %103

102:                                              ; preds = %85, %80
  br label %103

103:                                              ; preds = %102, %93
  %104 = phi ptr [ %101, %93 ], [ null, %102 ]
  store ptr %104, ptr %13, align 8
  %105 = getelementptr inbounds nuw %struct.ForFourState, ptr %16, i32 0, i32 3
  %106 = load ptr, ptr %105, align 8
  %107 = icmp ne ptr %106, null
  br i1 %107, label %108, label %125

108:                                              ; preds = %103
  %109 = getelementptr inbounds nuw %struct.ForFourState, ptr %16, i32 0, i32 4
  %110 = load i32, ptr %109, align 8
  %111 = getelementptr inbounds nuw %struct.ForFourState, ptr %16, i32 0, i32 3
  %112 = load ptr, ptr %111, align 8
  %113 = getelementptr inbounds nuw %struct.List, ptr %112, i32 0, i32 1
  %114 = load i32, ptr %113, align 4
  %115 = icmp slt i32 %110, %114
  br i1 %115, label %116, label %125

116:                                              ; preds = %108
  %117 = getelementptr inbounds nuw %struct.ForFourState, ptr %16, i32 0, i32 3
  %118 = load ptr, ptr %117, align 8
  %119 = getelementptr inbounds nuw %struct.List, ptr %118, i32 0, i32 3
  %120 = load ptr, ptr %119, align 8
  %121 = getelementptr inbounds nuw %struct.ForFourState, ptr %16, i32 0, i32 4
  %122 = load i32, ptr %121, align 8
  %123 = sext i32 %122 to i64
  %124 = getelementptr inbounds %union.ListCell, ptr %120, i64 %123
  br label %126

125:                                              ; preds = %108, %103
  br label %126

126:                                              ; preds = %125, %116
  %127 = phi ptr [ %124, %116 ], [ null, %125 ]
  store ptr %127, ptr %14, align 8
  %128 = load ptr, ptr %11, align 8
  %129 = icmp ne ptr %128, null
  br i1 %129, label %130, label %139

130:                                              ; preds = %126
  %131 = load ptr, ptr %12, align 8
  %132 = icmp ne ptr %131, null
  br i1 %132, label %133, label %139

133:                                              ; preds = %130
  %134 = load ptr, ptr %13, align 8
  %135 = icmp ne ptr %134, null
  br i1 %135, label %136, label %139

136:                                              ; preds = %133
  %137 = load ptr, ptr %14, align 8
  %138 = icmp ne ptr %137, null
  br label %139

139:                                              ; preds = %136, %133, %130, %126
  %140 = phi i1 [ false, %133 ], [ false, %130 ], [ false, %126 ], [ %138, %136 ]
  br i1 %140, label %142, label %141

141:                                              ; preds = %139
  call void @llvm.lifetime.end.p0(i64 40, ptr %16) #8
  br label %167

142:                                              ; preds = %139
  call void @llvm.lifetime.start.p0(i64 8, ptr %17) #8
  %143 = load ptr, ptr %11, align 8
  %144 = load ptr, ptr %143, align 8
  %145 = getelementptr inbounds nuw %struct.String, ptr %144, i32 0, i32 1
  %146 = load ptr, ptr %145, align 8
  store ptr %146, ptr %17, align 8
  call void @llvm.lifetime.start.p0(i64 4, ptr %18) #8
  %147 = load ptr, ptr %12, align 8
  %148 = load i32, ptr %147, align 8
  store i32 %148, ptr %18, align 4
  call void @llvm.lifetime.start.p0(i64 4, ptr %19) #8
  %149 = load ptr, ptr %13, align 8
  %150 = load i32, ptr %149, align 8
  store i32 %150, ptr %19, align 4
  call void @llvm.lifetime.start.p0(i64 4, ptr %20) #8
  %151 = load ptr, ptr %14, align 8
  %152 = load i32, ptr %151, align 8
  store i32 %152, ptr %20, align 4
  %153 = load i16, ptr %10, align 2
  %154 = add i16 %153, 1
  store i16 %154, ptr %10, align 2
  %155 = load ptr, ptr %15, align 8
  %156 = load i16, ptr %10, align 2
  %157 = load ptr, ptr %17, align 8
  %158 = load i32, ptr %18, align 4
  %159 = load i32, ptr %19, align 4
  call void @TupleDescInitEntry(ptr noundef %155, i16 noundef signext %156, ptr noundef %157, i32 noundef %158, i32 noundef %159, i32 noundef 0)
  %160 = load ptr, ptr %15, align 8
  %161 = load i16, ptr %10, align 2
  %162 = load i32, ptr %20, align 4
  call void @TupleDescInitEntryCollation(ptr noundef %160, i16 noundef signext %161, i32 noundef %162)
  call void @llvm.lifetime.end.p0(i64 4, ptr %20) #8
  call void @llvm.lifetime.end.p0(i64 4, ptr %19) #8
  call void @llvm.lifetime.end.p0(i64 4, ptr %18) #8
  call void @llvm.lifetime.end.p0(i64 8, ptr %17) #8
  br label %163

163:                                              ; preds = %142
  %164 = getelementptr inbounds nuw %struct.ForFourState, ptr %16, i32 0, i32 4
  %165 = load i32, ptr %164, align 8
  %166 = add i32 %165, 1
  store i32 %166, ptr %164, align 8
  br label %35, !llvm.loop !25

167:                                              ; preds = %141
  %168 = load ptr, ptr %15, align 8
  call void @llvm.lifetime.end.p0(i64 8, ptr %15) #8
  call void @llvm.lifetime.end.p0(i64 8, ptr %14) #8
  call void @llvm.lifetime.end.p0(i64 8, ptr %13) #8
  call void @llvm.lifetime.end.p0(i64 8, ptr %12) #8
  call void @llvm.lifetime.end.p0(i64 8, ptr %11) #8
  call void @llvm.lifetime.end.p0(i64 2, ptr %10) #8
  call void @llvm.lifetime.end.p0(i64 4, ptr %9) #8
  ret ptr %168
}