; Function Attrs: nounwind uwtable
define dso_local noundef ptr @BuildDescFromLists(ptr noundef readonly captures(address_is_null) %0, ptr noundef readonly captures(address_is_null) %1, ptr noundef readonly captures(address_is_null) %2, ptr noundef readonly captures(address_is_null) %3) local_unnamed_addr #0 {
  %.not.i = icmp eq ptr %0, null
  br i1 %.not.i, label %list_length.exit, label %5

5:                                                ; preds = %4
  %6 = getelementptr inbounds nuw i8, ptr %0, i64 4
  %7 = load i32, ptr %6, align 4
  br label %list_length.exit

list_length.exit:                                 ; preds = %4, %5
  %8 = phi i32 [ %7, %5 ], [ 0, %4 ]
  %9 = sext i32 %8 to i64
  %reass.mul.i = mul nsw i64 %9, 116
  %10 = add nsw i64 %reass.mul.i, 24
  %11 = tail call ptr @palloc(i64 noundef %10) #11
  store i32 %8, ptr %11, align 8
  %12 = getelementptr inbounds nuw i8, ptr %11, i64 16
  store ptr null, ptr %12, align 8
  %13 = getelementptr inbounds nuw i8, ptr %11, i64 4
  store i32 2249, ptr %13, align 4
  %14 = getelementptr inbounds nuw i8, ptr %11, i64 8
  store i32 -1, ptr %14, align 8
  %15 = getelementptr inbounds nuw i8, ptr %11, i64 12
  store i32 -1, ptr %15, align 4
  %.not52 = icmp eq ptr %1, null
  %.not53 = icmp eq ptr %2, null
  %.not54 = icmp eq ptr %3, null
  %invariant.gep = getelementptr i8, ptr %11, i64 20
  %16 = getelementptr inbounds nuw i8, ptr %0, i64 4
  %17 = getelementptr inbounds nuw i8, ptr %0, i64 16
  %18 = getelementptr inbounds nuw i8, ptr %1, i64 4
  %19 = getelementptr inbounds nuw i8, ptr %1, i64 16
  %20 = getelementptr inbounds nuw i8, ptr %2, i64 4
  %21 = getelementptr inbounds nuw i8, ptr %2, i64 16
  %22 = getelementptr inbounds nuw i8, ptr %3, i64 4
  %23 = getelementptr inbounds nuw i8, ptr %3, i64 16
  br label %24

24:                                               ; preds = %65, %list_length.exit
  %.sroa.18.0 = phi i32 [ 0, %list_length.exit ], [ %72, %65 ]
  br i1 %.not.i, label %32, label %25

25:                                               ; preds = %24
  %26 = load i32, ptr %16, align 4
  %27 = icmp slt i32 %.sroa.18.0, %26
  br i1 %27, label %28, label %32

28:                                               ; preds = %25
  %29 = load ptr, ptr %17, align 8
  %30 = sext i32 %.sroa.18.0 to i64
  %31 = getelementptr inbounds %union.ListCell, ptr %29, i64 %30
  br label %32

32:                                               ; preds = %24, %25, %28
  %33 = phi ptr [ %31, %28 ], [ null, %25 ], [ null, %24 ]
  br i1 %.not52, label %41, label %34

34:                                               ; preds = %32
  %35 = load i32, ptr %18, align 4
  %36 = icmp slt i32 %.sroa.18.0, %35
  br i1 %36, label %37, label %41

37:                                               ; preds = %34
  %38 = load ptr, ptr %19, align 8
  %39 = sext i32 %.sroa.18.0 to i64
  %40 = getelementptr inbounds %union.ListCell, ptr %38, i64 %39
  br label %41

41:                                               ; preds = %32, %34, %37
  %42 = phi ptr [ %40, %37 ], [ null, %34 ], [ null, %32 ]
  br i1 %.not53, label %50, label %43

43:                                               ; preds = %41
  %44 = load i32, ptr %20, align 4
  %45 = icmp slt i32 %.sroa.18.0, %44
  br i1 %45, label %46, label %50

46:                                               ; preds = %43
  %47 = load ptr, ptr %21, align 8
  %48 = sext i32 %.sroa.18.0 to i64
  %49 = getelementptr inbounds %union.ListCell, ptr %47, i64 %48
  br label %50

50:                                               ; preds = %41, %43, %46
  %51 = phi ptr [ %49, %46 ], [ null, %43 ], [ null, %41 ]
  br i1 %.not54, label %59, label %52

52:                                               ; preds = %50
  %53 = load i32, ptr %22, align 4
  %54 = icmp slt i32 %.sroa.18.0, %53
  br i1 %54, label %55, label %59

55:                                               ; preds = %52
  %56 = load ptr, ptr %23, align 8
  %57 = sext i32 %.sroa.18.0 to i64
  %58 = getelementptr inbounds %union.ListCell, ptr %56, i64 %57
  br label %59

59:                                               ; preds = %50, %52, %55
  %60 = phi ptr [ %58, %55 ], [ null, %52 ], [ null, %50 ]
  %61 = icmp ne ptr %33, null
  %62 = icmp ne ptr %42, null
  %or.cond = select i1 %61, i1 %62, i1 false
  %63 = icmp ne ptr %51, null
  %or.cond3 = select i1 %or.cond, i1 %63, i1 false
  %64 = icmp ne ptr %60, null
  %or.cond5 = select i1 %or.cond3, i1 %64, i1 false
  br i1 %or.cond5, label %65, label %.critedge

.critedge:                                        ; preds = %59
  ret ptr %11

65:                                               ; preds = %59
  %66 = load ptr, ptr %33, align 8
  %67 = getelementptr inbounds nuw i8, ptr %66, i64 8
  %68 = load ptr, ptr %67, align 8
  %69 = load i32, ptr %42, align 8
  %70 = load i32, ptr %51, align 8
  %71 = load i32, ptr %60, align 8
  %72 = add i32 %.sroa.18.0, 1
  %indvars = trunc i32 %72 to i16
  tail call void @TupleDescInitEntry(ptr noundef nonnull %11, i16 noundef signext %indvars, ptr noundef %68, i32 noundef %69, i32 noundef %70, i32 noundef 0)
  %73 = sext i16 %indvars to i64
  %74 = load i32, ptr %11, align 8
  %75 = sext i32 %74 to i64
  %76 = shl nsw i64 %75, 4
  %.idx.i = mul nsw i64 %73, 100
  %gep = getelementptr i8, ptr %invariant.gep, i64 %76
  %77 = getelementptr i8, ptr %gep, i64 %.idx.i
  store i32 %71, ptr %77, align 4
  br label %24, !llvm.loop !24
}